; Function Attrs: nounwind uwtable
define internal fastcc i32 @do_submodule_path(ptr noundef %0, ptr noundef %1, ptr noundef %2, ptr noundef nonnull %3) unnamed_addr #3 {
  %5 = alloca %struct.strbuf, align 8
  %6 = alloca %struct.strbuf, align 8
  call void @llvm.lifetime.start.p0(i64 24, ptr nonnull %5) #29
  call void @llvm.memcpy.p0.p0.i64(ptr noundef nonnull align 8 dereferenceable(24) %5, ptr noundef nonnull align 8 dereferenceable(24) @__const.do_submodule_path.git_submodule_dir, i64 24, i1 false)
  call void @llvm.lifetime.start.p0(i64 24, ptr nonnull %6) #29
  call void @llvm.memcpy.p0.p0.i64(ptr noundef nonnull align 8 dereferenceable(24) %6, ptr noundef nonnull align 8 dereferenceable(24) @__const.do_submodule_path.git_submodule_dir, i64 24, i1 false)
  %7 = call i32 @submodule_to_gitdir(ptr noundef nonnull %6, ptr noundef %1) #29
  %.not = icmp eq i32 %7, 0
  br i1 %.not, label %8, label %strbuf_cleanup_path.exit

8:                                                ; preds = %4
  %9 = getelementptr inbounds nuw i8, ptr %6, i64 8
  %10 = load i64, ptr %9, align 8, !tbaa !8
  %.not.i = icmp eq i64 %10, 0
  br i1 %.not.i, label %strbuf_complete.exit, label %11

11:                                               ; preds = %8
  %12 = getelementptr inbounds nuw i8, ptr %6, i64 16
  %13 = load ptr, ptr %12, align 8, !tbaa !13
  %14 = getelementptr i8, ptr %13, i64 %10
  %15 = getelementptr i8, ptr %14, i64 -1
  %16 = load i8, ptr %15, align 1, !tbaa !14
  %.not6.i = icmp eq i8 %16, 47
  br i1 %.not6.i, label %strbuf_complete.exit, label %17

17:                                               ; preds = %11
  %18 = load i64, ptr %6, align 8, !tbaa !15
  %.not.i.i.i = icmp eq i64 %18, 0
  %.neg.i.i = add i64 %10, 1
  %.not.i.i = icmp eq i64 %18, %.neg.i.i
  %or.cond.i = or i1 %.not.i.i.i, %.not.i.i
  br i1 %or.cond.i, label %strbuf_avail.exit.thread.i.i, label %strbuf_addch.exit.i

strbuf_avail.exit.thread.i.i:                     ; preds = %17
  call void @strbuf_grow(ptr noundef nonnull %6, i64 noundef 1) #29
  %.pre.i.i = load i64, ptr %9, align 8, !tbaa !8
  %.pre7.i.i = add i64 %.pre.i.i, 1
  %.pre.i = load ptr, ptr %12, align 8, !tbaa !13
  br label %strbuf_addch.exit.i

strbuf_addch.exit.i:                              ; preds = %strbuf_avail.exit.thread.i.i, %17
  %19 = phi ptr [ %.pre.i, %strbuf_avail.exit.thread.i.i ], [ %13, %17 ]
  %.pre-phi.i.i = phi i64 [ %.pre7.i.i, %strbuf_avail.exit.thread.i.i ], [ %.neg.i.i, %17 ]
  %20 = phi i64 [ %.pre.i.i, %strbuf_avail.exit.thread.i.i ], [ %10, %17 ]
  store i64 %.pre-phi.i.i, ptr %9, align 8, !tbaa !8
  %21 = getelementptr inbounds nuw i8, ptr %19, i64 %20
  store i8 47, ptr %21, align 1, !tbaa !14
  %22 = load ptr, ptr %12, align 8, !tbaa !13
  %23 = load i64, ptr %9, align 8, !tbaa !8
  %24 = getelementptr inbounds nuw i8, ptr %22, i64 %23
  store i8 0, ptr %24, align 1, !tbaa !14
  br label %strbuf_complete.exit

strbuf_complete.exit:                             ; preds = %8, %11, %strbuf_addch.exit.i
  call void @strbuf_addbuf(ptr noundef %0, ptr noundef nonnull %6) #29
  call void @strbuf_vaddf(ptr noundef %0, ptr noundef %2, ptr noundef nonnull %3) #29
  %25 = getelementptr inbounds nuw i8, ptr %6, i64 16
  %26 = load ptr, ptr %25, align 8, !tbaa !13
  %27 = call i32 @get_common_dir_noenv(ptr noundef nonnull %5, ptr noundef %26) #29
  %.not8 = icmp eq i32 %27, 0
  br i1 %.not8, label %33, label %28

28:                                               ; preds = %strbuf_complete.exit
  %29 = load i64, ptr %9, align 8, !tbaa !8
  %30 = trunc i64 %29 to i32
  %31 = getelementptr inbounds nuw i8, ptr %5, i64 16
  %32 = load ptr, ptr %31, align 8, !tbaa !13
  call fastcc void @update_common_dir(ptr noundef %0, i32 noundef %30, ptr noundef %32)
  br label %33

33:                                               ; preds = %28, %strbuf_complete.exit
  %34 = getelementptr inbounds nuw i8, ptr %0, i64 16
  %35 = load ptr, ptr %34, align 8, !tbaa !13
  %scevgep.i.i = getelementptr i8, ptr %35, i64 2
  br label %36

36:                                               ; preds = %37, %33
  %.07.i.i.i = phi ptr [ %35, %33 ], [ %39, %37 ]
  %.06.i.idx.i.i = phi i64 [ 0, %33 ], [ %.06.i.add.i.i, %37 ]
  %exitcond.i.i = icmp eq i64 %.06.i.idx.i.i, 2
  br i1 %exitcond.i.i, label %skip_prefix.exit.i.i, label %37

37:                                               ; preds = %36
  %.06.i.ptr.i.i = getelementptr inbounds nuw i8, ptr @.str.11, i64 %.06.i.idx.i.i
  %38 = load i8, ptr %.06.i.ptr.i.i, align 1, !tbaa !14
  %39 = getelementptr inbounds nuw i8, ptr %.07.i.i.i, i64 1
  %40 = load i8, ptr %.07.i.i.i, align 1, !tbaa !14
  %.06.i.add.i.i = add nuw nsw i64 %.06.i.idx.i.i, 1
  %41 = icmp eq i8 %40, %38
  br i1 %41, label %36, label %strbuf_cleanup_path.exit, !llvm.loop !66

skip_prefix.exit.i.i:                             ; preds = %36, %skip_prefix.exit.i.i
  %.1.i.i = phi ptr [ %44, %skip_prefix.exit.i.i ], [ %scevgep.i.i, %36 ]
  %42 = load i8, ptr %.1.i.i, align 1, !tbaa !14
  %43 = icmp eq i8 %42, 47
  %44 = getelementptr inbounds nuw i8, ptr %.1.i.i, i64 1
  br i1 %43, label %skip_prefix.exit.i.i, label %cleanup_path.exit.i, !llvm.loop !67

cleanup_path.exit.i:                              ; preds = %skip_prefix.exit.i.i
  %45 = icmp ugt ptr %.1.i.i, %35
  br i1 %45, label %46, label %strbuf_cleanup_path.exit

46:                                               ; preds = %cleanup_path.exit.i
  %47 = ptrtoint ptr %.1.i.i to i64
  %48 = ptrtoint ptr %35 to i64
  %49 = sub i64 %47, %48
  call void @strbuf_remove(ptr noundef %0, i64 noundef 0, i64 noundef %49) #29
  br label %strbuf_cleanup_path.exit

strbuf_cleanup_path.exit:                         ; preds = %37, %46, %cleanup_path.exit.i, %4
  call void @strbuf_release(ptr noundef nonnull %6) #29
  call void @strbuf_release(ptr noundef nonnull %5) #29
  call void @llvm.lifetime.end.p0(i64 24, ptr nonnull %6) #29
  call void @llvm.lifetime.end.p0(i64 24, ptr nonnull %5) #29
  ret i32 %7
}